; Function Attrs: nounwind uwtable
define internal i32 @mime_subparts_seek(ptr noundef captures(none) %0, i64 noundef %1, i32 noundef %2) #0 {
  %4 = icmp ne i32 %2, 0
  %5 = icmp ne i64 %1, 0
  %or.cond = or i1 %5, %4
  br i1 %or.cond, label %31, label %6

6:                                                ; preds = %3
  %7 = getelementptr inbounds nuw i8, ptr %0, i64 72
  %8 = load i32, ptr %7, align 8, !tbaa !57
  %9 = icmp eq i32 %8, 0
  br i1 %9, label %31, label %.preheader

.preheader:                                       ; preds = %6
  %.015.in20 = getelementptr inbounds nuw i8, ptr %0, i64 8
  %.01521 = load ptr, ptr %.015.in20, align 8, !tbaa !44
  %.not22 = icmp eq ptr %.01521, null
  br i1 %.not22, label %._crit_edge.thread, label %.lr.ph

.lr.ph:                                           ; preds = %.preheader, %mime_part_rewind.exit.thread
  %.01524 = phi ptr [ %.015, %mime_part_rewind.exit.thread ], [ %.01521, %.preheader ]
  %.01423 = phi i32 [ %27, %mime_part_rewind.exit.thread ], [ 0, %.preheader ]
  %10 = getelementptr inbounds nuw i8, ptr %.01524, i64 20
  %11 = load i32, ptr %10, align 4, !tbaa !24
  %12 = shl i32 %11, 1
  %spec.store.select.i = and i32 %12, 4
  %13 = getelementptr inbounds nuw i8, ptr %.01524, i64 152
  tail call void @llvm.memset.p0.i64(ptr noundef nonnull align 8 dereferenceable(24) %13, i8 0, i64 24, i1 false)
  %14 = getelementptr inbounds nuw i8, ptr %.01524, i64 120
  %15 = load i32, ptr %14, align 8, !tbaa !26
  %16 = icmp ugt i32 %15, %spec.store.select.i
  br i1 %16, label %17, label %25

17:                                               ; preds = %.lr.ph
  %18 = getelementptr inbounds nuw i8, ptr %.01524, i64 40
  %19 = load ptr, ptr %18, align 8, !tbaa !40
  %.not.i = icmp eq ptr %19, null
  br i1 %.not.i, label %mime_part_rewind.exit.thread, label %20

20:                                               ; preds = %17
  %21 = getelementptr inbounds nuw i8, ptr %.01524, i64 56
  %22 = load ptr, ptr %21, align 8, !tbaa !19
  %23 = tail call i32 %19(ptr noundef %22, i64 noundef 0, i32 noundef 0) #18
  switch i32 %23, label %24 [
    i32 -1, label %mime_part_rewind.exit.thread
    i32 0, label %25
    i32 1, label %.thread.fold.split.i
    i32 2, label %.thread.fold.split.i
  ]

24:                                               ; preds = %20
  br label %mime_part_rewind.exit.thread

.thread.fold.split.i:                             ; preds = %20, %20
  br label %mime_part_rewind.exit.thread

25:                                               ; preds = %20, %.lr.ph
  store i32 %spec.store.select.i, ptr %14, align 8, !tbaa !41
  %26 = getelementptr inbounds nuw i8, ptr %.01524, i64 128
  tail call void @llvm.memset.p0.i64(ptr noundef nonnull align 8 dereferenceable(16) %26, i8 0, i64 16, i1 false)
  br label %mime_part_rewind.exit.thread

mime_part_rewind.exit.thread:                     ; preds = %.thread.fold.split.i, %20, %24, %17, %25
  %27 = phi i32 [ %.01423, %25 ], [ %23, %.thread.fold.split.i ], [ 2, %20 ], [ 1, %24 ], [ 2, %17 ]
  %28 = getelementptr inbounds nuw i8, ptr %.01524, i64 432
  store i64 1, ptr %28, align 8, !tbaa !25
  %.015.in = getelementptr inbounds nuw i8, ptr %.01524, i64 8
  %.015 = load ptr, ptr %.015.in, align 8, !tbaa !44
  %.not = icmp eq ptr %.015, null
  br i1 %.not, label %._crit_edge, label %.lr.ph, !llvm.loop !58

._crit_edge:                                      ; preds = %mime_part_rewind.exit.thread
  %29 = icmp eq i32 %27, 0
  br i1 %29, label %._crit_edge.thread, label %31

._crit_edge.thread:                               ; preds = %.preheader, %._crit_edge
  store i32 0, ptr %7, align 8, !tbaa !41
  %30 = getelementptr inbounds nuw i8, ptr %0, i64 80
  tail call void @llvm.memset.p0.i64(ptr noundef nonnull align 8 dereferenceable(16) %30, i8 0, i64 16, i1 false)
  br label %31

31:                                               ; preds = %._crit_edge, %._crit_edge.thread, %6, %3
  %.0 = phi i32 [ 2, %3 ], [ 0, %6 ], [ 0, %._crit_edge.thread ], [ %27, %._crit_edge ]
  ret i32 %.0
}